; Function Attrs: nounwind uwtable
define ptr @l___private_Std_Sync_Channel_0__Std_CloseableChannel_Bounded_tryRecv_x27___rarg(ptr noundef %0, ptr noundef %1, ptr noundef %2, ptr noundef %3) #1 {
  %5 = getelementptr inbounds nuw i8, ptr %0, i64 16
  %6 = load ptr, ptr %5, align 8, !tbaa !10
  %7 = ptrtoint ptr %6 to i64
  %8 = and i64 %7, 1
  %.not = icmp eq i64 %8, 0
  br i1 %.not, label %9, label %lean_inc.exit27

9:                                                ; preds = %4
  %.val.i = load i32, ptr %6, align 4, !tbaa !4
  %10 = icmp sgt i32 %.val.i, 0
  br i1 %10, label %11, label %13, !prof !9

11:                                               ; preds = %9
  %12 = add nuw i32 %.val.i, 1
  store i32 %12, ptr %6, align 4, !tbaa !4
  br label %lean_inc.exit27

13:                                               ; preds = %9
  %.not.i = icmp eq i32 %.val.i, 0
  br i1 %.not.i, label %lean_inc.exit27, label %14

14:                                               ; preds = %13
  tail call void @lean_inc_ref_cold(ptr noundef nonnull %6) #7
  br label %lean_inc.exit27

lean_inc.exit27:                                  ; preds = %14, %13, %11, %4
  %15 = ptrtoint ptr %3 to i64
  %16 = and i64 %15, 1
  %.not38 = icmp eq i64 %16, 0
  br i1 %.not38, label %17, label %lean_inc.exit26

17:                                               ; preds = %lean_inc.exit27
  %.val.i28 = load i32, ptr %3, align 4, !tbaa !4
  %18 = icmp sgt i32 %.val.i28, 0
  br i1 %18, label %19, label %21, !prof !9

19:                                               ; preds = %17
  %20 = add nuw i32 %.val.i28, 1
  store i32 %20, ptr %3, align 4, !tbaa !4
  br label %lean_inc.exit26

21:                                               ; preds = %17
  %.not.i29 = icmp eq i32 %.val.i28, 0
  br i1 %.not.i29, label %lean_inc.exit26, label %22

22:                                               ; preds = %21
  tail call void @lean_inc_ref_cold(ptr noundef nonnull %3) #7
  br label %lean_inc.exit26

lean_inc.exit26:                                  ; preds = %22, %21, %19, %lean_inc.exit27
  tail call void @lean_inc_heartbeat() #7
  %23 = tail call noalias ptr @mi_malloc_small(i64 noundef 48) #7
  %24 = icmp eq ptr %23, null
  br i1 %24, label %25, label %lean_alloc_closure.exit

25:                                               ; preds = %lean_inc.exit26
  tail call void @lean_internal_panic_out_of_memory() #8
  unreachable

lean_alloc_closure.exit:                          ; preds = %lean_inc.exit26
  %26 = getelementptr inbounds nuw i8, ptr %23, i64 4
  store i32 1, ptr %23, align 4, !tbaa !4
  store i32 -184549328, ptr %26, align 4
  %27 = getelementptr inbounds nuw i8, ptr %23, i64 8
  store ptr @l_ST_Prim_Ref_get___boxed, ptr %27, align 8, !tbaa !10
  %28 = getelementptr inbounds nuw i8, ptr %23, i64 16
  store i16 4, ptr %28, align 8, !tbaa !12
  %29 = getelementptr inbounds nuw i8, ptr %23, i64 18
  store i16 3, ptr %29, align 2, !tbaa !12
  %30 = getelementptr inbounds nuw i8, ptr %23, i64 24
  store ptr inttoptr (i64 1 to ptr), ptr %30, align 8, !tbaa !10
  %31 = getelementptr inbounds nuw i8, ptr %23, i64 32
  store ptr inttoptr (i64 1 to ptr), ptr %31, align 8, !tbaa !10
  %32 = getelementptr inbounds nuw i8, ptr %23, i64 40
  store ptr %3, ptr %32, align 8, !tbaa !10
  %33 = ptrtoint ptr %1 to i64
  %34 = and i64 %33, 1
  %.not39 = icmp eq i64 %34, 0
  br i1 %.not39, label %35, label %lean_inc.exit25

35:                                               ; preds = %lean_alloc_closure.exit
  %.val.i31 = load i32, ptr %1, align 4, !tbaa !4
  %36 = icmp sgt i32 %.val.i31, 0
  br i1 %36, label %37, label %39, !prof !9

37:                                               ; preds = %35
  %38 = add nuw i32 %.val.i31, 1
  store i32 %38, ptr %1, align 4, !tbaa !4
  br label %lean_inc.exit25

39:                                               ; preds = %35
  %.not.i32 = icmp eq i32 %.val.i31, 0
  br i1 %.not.i32, label %lean_inc.exit25, label %40

40:                                               ; preds = %39
  tail call void @lean_inc_ref_cold(ptr noundef nonnull %1) #7
  br label %lean_inc.exit25

lean_inc.exit25:                                  ; preds = %40, %39, %37, %lean_alloc_closure.exit
  %41 = tail call ptr @lean_apply_2(ptr noundef %1, ptr noundef nonnull inttoptr (i64 1 to ptr), ptr noundef nonnull %23) #7
  br i1 %.not, label %42, label %lean_inc.exit

42:                                               ; preds = %lean_inc.exit25
  %.val.i34 = load i32, ptr %6, align 4, !tbaa !4
  %43 = icmp sgt i32 %.val.i34, 0
  br i1 %43, label %44, label %46, !prof !9

44:                                               ; preds = %42
  %45 = add nuw i32 %.val.i34, 1
  store i32 %45, ptr %6, align 4, !tbaa !4
  br label %lean_inc.exit

46:                                               ; preds = %42
  %.not.i35 = icmp eq i32 %.val.i34, 0
  br i1 %.not.i35, label %lean_inc.exit, label %47

47:                                               ; preds = %46
  tail call void @lean_inc_ref_cold(ptr noundef nonnull %6) #7
  br label %lean_inc.exit

lean_inc.exit:                                    ; preds = %47, %46, %44, %lean_inc.exit25
  tail call void @lean_inc_heartbeat() #7
  %48 = tail call noalias ptr @mi_malloc_small(i64 noundef 64) #7
  %49 = icmp eq ptr %48, null
  br i1 %49, label %50, label %lean_alloc_closure.exit37

50:                                               ; preds = %lean_inc.exit
  tail call void @lean_internal_panic_out_of_memory() #8
  unreachable

lean_alloc_closure.exit37:                        ; preds = %lean_inc.exit
  %51 = getelementptr inbounds nuw i8, ptr %48, i64 4
  store i32 1, ptr %48, align 4, !tbaa !4
  store i32 -184549312, ptr %51, align 4
  %52 = getelementptr inbounds nuw i8, ptr %48, i64 8
  store ptr @l___private_Std_Sync_Channel_0__Std_CloseableChannel_Bounded_tryRecv_x27___rarg___lambda__6, ptr %52, align 8, !tbaa !10
  %53 = getelementptr inbounds nuw i8, ptr %48, i64 16
  store i16 6, ptr %53, align 8, !tbaa !12
  %54 = getelementptr inbounds nuw i8, ptr %48, i64 18
  store i16 5, ptr %54, align 2, !tbaa !12
  %55 = getelementptr inbounds nuw i8, ptr %48, i64 24
  store ptr %1, ptr %55, align 8, !tbaa !10
  %56 = getelementptr inbounds nuw i8, ptr %48, i64 32
  store ptr %0, ptr %56, align 8, !tbaa !10
  %57 = getelementptr inbounds nuw i8, ptr %48, i64 40
  store ptr %6, ptr %57, align 8, !tbaa !10
  %58 = getelementptr inbounds nuw i8, ptr %48, i64 48
  store ptr %3, ptr %58, align 8, !tbaa !10
  %59 = getelementptr inbounds nuw i8, ptr %48, i64 56
  store ptr %2, ptr %59, align 8, !tbaa !10
  %60 = tail call ptr @lean_apply_4(ptr noundef %6, ptr noundef nonnull inttoptr (i64 1 to ptr), ptr noundef nonnull inttoptr (i64 1 to ptr), ptr noundef %41, ptr noundef nonnull %48) #7
  ret ptr %60
}